target datalayout = "e-m:e-p270:32:32-p271:32:32-p272:64:64-i64:64-i128:128-f80:128-n8:16:32:64-S128"
target triple = "x86_64-pc-linux-gnu"

%struct.RMStream = type { %struct.AVPacket, i32, i32, i32, i32, i32, i64, i64, i32, i32, i32, i32, i32, [16 x i32], i32 }
%struct.AVPacket = type { ptr, i64, i64, ptr, i32, i32, i32, ptr, i32, i64, i64, ptr, ptr, %struct.AVRational }
%struct.AVRational = type { i32, i32 }
%struct.AVStream = type { ptr, i32, i32, ptr, ptr, %struct.AVRational, i64, i64, i64, i32, i32, %struct.AVRational, ptr, %struct.AVRational, %struct.AVPacket, i32, %struct.AVRational, i32 }
%struct.AVCodecParameters = type { i32, i32, i32, ptr, i32, ptr, i32, i32, i64, i32, i32, i32, i32, i32, i32, %struct.AVRational, %struct.AVRational, i32, i32, i32, i32, i32, i32, i32, %struct.AVChannelLayout, i32, i32, i32, i32, i32, i32 }
%struct.AVChannelLayout = type { i32, i32, %union.anon, ptr }
%union.anon = type { i64 }
%struct.AVFormatContext = type { ptr, ptr, ptr, ptr, ptr, i32, i32, ptr, i32, ptr, i32, ptr, ptr, i64, i64, i64, i32, i32, i32, i64, i64, ptr, i32, i32, ptr, i32, i32, i32, i32, ptr, i64, i32, i32, %struct.AVIOInterruptCB, i32, i32, i32, i32, i64, i32, i32, i32, i32, i32, i32, i32, i32, i32, i32, i32, i32, i64, i32, i32, i32, i32, i32, ptr, ptr, ptr, ptr, i32, ptr, ptr, ptr, ptr, i32, ptr, ptr, i64, ptr, ptr, ptr, i64 }
%struct.AVIOInterruptCB = type { ptr, ptr }

@.str.31 = private unnamed_addr constant [29 x i8] c"MLTI with multiple (%d) MDPR\00", align 1

; Function Attrs: nounwind uwtable
define ptr @ff_rm_alloc_rmstream() #0 {
  %1 = alloca ptr, align 8
  %2 = alloca ptr, align 8
  %3 = alloca i32, align 4
  call void @llvm.lifetime.start.p0(i64 8, ptr %2) #10
  %4 = call noalias ptr @av_mallocz(i64 noundef 232)
  store ptr %4, ptr %2, align 8, !tbaa !4
  %5 = load ptr, ptr %2, align 8, !tbaa !4
  %6 = icmp ne ptr %5, null
  br i1 %6, label %8, label %7

7:                                                ; preds = %0
  store ptr null, ptr %1, align 8
  store i32 1, ptr %3, align 4
  br label %12

8:                                                ; preds = %0
  %9 = load ptr, ptr %2, align 8, !tbaa !4
  %10 = getelementptr inbounds nuw %struct.RMStream, ptr %9, i32 0, i32 3
  store i32 -1, ptr %10, align 8, !tbaa !9
  %11 = load ptr, ptr %2, align 8, !tbaa !4
  store ptr %11, ptr %1, align 8
  store i32 1, ptr %3, align 4
  br label %12

12:                                               ; preds = %8, %7
  call void @llvm.lifetime.end.p0(i64 8, ptr %2) #10
  %13 = load ptr, ptr %1, align 8
  ret ptr %13
}

; Function Attrs: nounwind uwtable
define internal i32 @rm_read_multi(ptr noundef %0, ptr noundef %1, ptr noundef %2, ptr noundef %3) #0 {
  %5 = alloca i32, align 4
  %6 = alloca ptr, align 8
  %7 = alloca ptr, align 8
  %8 = alloca ptr, align 8
  %9 = alloca ptr, align 8
  %10 = alloca i32, align 4
  %11 = alloca i32, align 4
  %12 = alloca i32, align 4
  %13 = alloca i32, align 4
  %14 = alloca i32, align 4
  %15 = alloca ptr, align 8
  %16 = alloca i32, align 4
  store ptr %0, ptr %6, align 8, !tbaa !18
  store ptr %1, ptr %7, align 8, !tbaa !20
  store ptr %2, ptr %8, align 8, !tbaa !22
  store ptr %3, ptr %9, align 8, !tbaa !25
  call void @llvm.lifetime.start.p0(i64 4, ptr %10) #10
  %17 = load ptr, ptr %7, align 8, !tbaa !20
  %18 = call i32 @avio_rb16(ptr noundef %17)
  store i32 %18, ptr %10, align 4, !tbaa !24
  call void @llvm.lifetime.start.p0(i64 4, ptr %11) #10
  call void @llvm.lifetime.start.p0(i64 4, ptr %12) #10
  call void @llvm.lifetime.start.p0(i64 4, ptr %13) #10
  call void @llvm.lifetime.start.p0(i64 4, ptr %14) #10
  store i32 0, ptr %12, align 4, !tbaa !24
  br label %19

19:                                               ; preds = %26, %4
  %20 = load i32, ptr %12, align 4, !tbaa !24
  %21 = load i32, ptr %10, align 4, !tbaa !24
  %22 = icmp slt i32 %20, %21
  br i1 %22, label %23, label %29

23:                                               ; preds = %19
  %24 = load ptr, ptr %7, align 8, !tbaa !20
  %25 = call i32 @avio_rb16(ptr noundef %24)
  br label %26

26:                                               ; preds = %23
  %27 = load i32, ptr %12, align 4, !tbaa !24
  %28 = add nsw i32 %27, 1
  store i32 %28, ptr %12, align 4, !tbaa !24
  br label %19, !llvm.loop !144

29:                                               ; preds = %19
  %30 = load ptr, ptr %7, align 8, !tbaa !20
  %31 = call i32 @avio_rb16(ptr noundef %30)
  store i32 %31, ptr %11, align 4, !tbaa !24
  %32 = load i32, ptr %11, align 4, !tbaa !24
  %33 = icmp ne i32 %32, 1
  br i1 %33, label %34, label %37

34:                                               ; preds = %29
  %35 = load ptr, ptr %6, align 8, !tbaa !18
  %36 = load i32, ptr %11, align 4, !tbaa !24
  call void (ptr, ptr, ...) @avpriv_request_sample(ptr noundef %35, ptr noundef @.str.31, i32 noundef %36)
  br label %37

37:                                               ; preds = %34, %29
  store i32 0, ptr %12, align 4, !tbaa !24
  br label %38

38:                                               ; preds = %116, %37
  %39 = load i32, ptr %12, align 4, !tbaa !24
  %40 = load i32, ptr %11, align 4, !tbaa !24
  %41 = icmp slt i32 %39, %40
  br i1 %41, label %42, label %119

42:                                               ; preds = %38
  call void @llvm.lifetime.start.p0(i64 8, ptr %15) #10
  %43 = load i32, ptr %12, align 4, !tbaa !24
  %44 = icmp sgt i32 %43, 0
  br i1 %44, label %45, label %93

45:                                               ; preds = %42
  %46 = load ptr, ptr %6, align 8, !tbaa !18
  %47 = call ptr @avformat_new_stream(ptr noundef %46, ptr noundef null)
  store ptr %47, ptr %15, align 8, !tbaa !22
  %48 = load ptr, ptr %15, align 8, !tbaa !22
  %49 = icmp ne ptr %48, null
  br i1 %49, label %52, label %50

50:                                               ; preds = %45
  store i32 -12, ptr %13, align 4, !tbaa !24
  %51 = load i32, ptr %13, align 4, !tbaa !24
  store i32 %51, ptr %5, align 4
  store i32 1, ptr %16, align 4
  br label %113

52:                                               ; preds = %45
  %53 = load ptr, ptr %8, align 8, !tbaa !22
  %54 = getelementptr inbounds nuw %struct.AVStream, ptr %53, i32 0, i32 2
  %55 = load i32, ptr %54, align 4, !tbaa !92
  %56 = load i32, ptr %12, align 4, !tbaa !24
  %57 = shl i32 %56, 16
  %58 = add nsw i32 %55, %57
  %59 = load ptr, ptr %15, align 8, !tbaa !22
  %60 = getelementptr inbounds nuw %struct.AVStream, ptr %59, i32 0, i32 2
  store i32 %58, ptr %60, align 4, !tbaa !92
  %61 = load ptr, ptr %8, align 8, !tbaa !22
  %62 = getelementptr inbounds nuw %struct.AVStream, ptr %61, i32 0, i32 3
  %63 = load ptr, ptr %62, align 8, !tbaa !26
  %64 = getelementptr inbounds nuw %struct.AVCodecParameters, ptr %63, i32 0, i32 8
  %65 = load i64, ptr %64, align 8, !tbaa !69
  %66 = load ptr, ptr %15, align 8, !tbaa !22
  %67 = getelementptr inbounds nuw %struct.AVStream, ptr %66, i32 0, i32 3
  %68 = load ptr, ptr %67, align 8, !tbaa !26
  %69 = getelementptr inbounds nuw %struct.AVCodecParameters, ptr %68, i32 0, i32 8
  store i64 %65, ptr %69, align 8, !tbaa !69
  %70 = load ptr, ptr %8, align 8, !tbaa !22
  %71 = getelementptr inbounds nuw %struct.AVStream, ptr %70, i32 0, i32 6
  %72 = load i64, ptr %71, align 8, !tbaa !124
  %73 = load ptr, ptr %15, align 8, !tbaa !22
  %74 = getelementptr inbounds nuw %struct.AVStream, ptr %73, i32 0, i32 6
  store i64 %72, ptr %74, align 8, !tbaa !124
  %75 = load ptr, ptr %8, align 8, !tbaa !22
  %76 = getelementptr inbounds nuw %struct.AVStream, ptr %75, i32 0, i32 7
  %77 = load i64, ptr %76, align 8, !tbaa !125
  %78 = load ptr, ptr %15, align 8, !tbaa !22
  %79 = getelementptr inbounds nuw %struct.AVStream, ptr %78, i32 0, i32 7
  store i64 %77, ptr %79, align 8, !tbaa !125
  %80 = load ptr, ptr %15, align 8, !tbaa !22
  %81 = getelementptr inbounds nuw %struct.AVStream, ptr %80, i32 0, i32 3
  %82 = load ptr, ptr %81, align 8, !tbaa !26
  %83 = getelementptr inbounds nuw %struct.AVCodecParameters, ptr %82, i32 0, i32 0
  store i32 2, ptr %83, align 8, !tbaa !31
  %84 = call ptr @ff_rm_alloc_rmstream()
  %85 = load ptr, ptr %15, align 8, !tbaa !22
  %86 = getelementptr inbounds nuw %struct.AVStream, ptr %85, i32 0, i32 4
  store ptr %84, ptr %86, align 8, !tbaa !126
  %87 = load ptr, ptr %15, align 8, !tbaa !22
  %88 = getelementptr inbounds nuw %struct.AVStream, ptr %87, i32 0, i32 4
  %89 = load ptr, ptr %88, align 8, !tbaa !126
  %90 = icmp ne ptr %89, null
  br i1 %90, label %92, label %91

91:                                               ; preds = %52
  store i32 -12, ptr %5, align 4
  store i32 1, ptr %16, align 4
  br label %113

92:                                               ; preds = %52
  br label %95

93:                                               ; preds = %42
  %94 = load ptr, ptr %8, align 8, !tbaa !22
  store ptr %94, ptr %15, align 8, !tbaa !22
  br label %95

95:                                               ; preds = %93, %92
  %96 = load ptr, ptr %7, align 8, !tbaa !20
  %97 = call i32 @avio_rb32(ptr noundef %96)
  store i32 %97, ptr %14, align 4, !tbaa !24
  %98 = load ptr, ptr %6, align 8, !tbaa !18
  %99 = load ptr, ptr %6, align 8, !tbaa !18
  %100 = getelementptr inbounds nuw %struct.AVFormatContext, ptr %99, i32 0, i32 4
  %101 = load ptr, ptr %100, align 8, !tbaa !122
  %102 = load ptr, ptr %15, align 8, !tbaa !22
  %103 = load ptr, ptr %15, align 8, !tbaa !22
  %104 = getelementptr inbounds nuw %struct.AVStream, ptr %103, i32 0, i32 4
  %105 = load ptr, ptr %104, align 8, !tbaa !126
  %106 = load i32, ptr %14, align 4, !tbaa !24
  %107 = call i32 @ff_rm_read_mdpr_codecdata(ptr noundef %98, ptr noundef %101, ptr noundef %102, ptr noundef %105, i32 noundef %106, ptr noundef null)
  store i32 %107, ptr %13, align 4, !tbaa !24
  %108 = load i32, ptr %13, align 4, !tbaa !24
  %109 = icmp slt i32 %108, 0
  br i1 %109, label %110, label %112

110:                                              ; preds = %95
  %111 = load i32, ptr %13, align 4, !tbaa !24
  store i32 %111, ptr %5, align 4
  store i32 1, ptr %16, align 4
  br label %113

112:                                              ; preds = %95
  store i32 0, ptr %16, align 4
  br label %113

113:                                              ; preds = %112, %110, %91, %50
  call void @llvm.lifetime.end.p0(i64 8, ptr %15) #10
  %114 = load i32, ptr %16, align 4
  switch i32 %114, label %120 [
    i32 0, label %115
  ]

115:                                              ; preds = %113
  br label %116

116:                                              ; preds = %115
  %117 = load i32, ptr %12, align 4, !tbaa !24
  %118 = add nsw i32 %117, 1
  store i32 %118, ptr %12, align 4, !tbaa !24
  br label %38, !llvm.loop !145

119:                                              ; preds = %38
  store i32 0, ptr %5, align 4
  store i32 1, ptr %16, align 4
  br label %120

120:                                              ; preds = %119, %113
  call void @llvm.lifetime.end.p0(i64 4, ptr %14) #10
  call void @llvm.lifetime.end.p0(i64 4, ptr %13) #10
  call void @llvm.lifetime.end.p0(i64 4, ptr %12) #10
  call void @llvm.lifetime.end.p0(i64 4, ptr %11) #10
  call void @llvm.lifetime.end.p0(i64 4, ptr %10) #10
  %121 = load i32, ptr %5, align 4
  ret i32 %121
}