; Function Attrs: nounwind uwtable
define internal fastcc range(i32 -2147483648, 1) i32 @rm_read_multi(ptr noundef %0, ptr noundef %1, ptr noundef nonnull %2) unnamed_addr #0 {
  %4 = tail call i32 @avio_rb16(ptr noundef %1) #12
  %5 = icmp sgt i32 %4, 0
  br i1 %5, label %.lr.ph, label %._crit_edge

.lr.ph:                                           ; preds = %3, %.lr.ph
  %.0404 = phi i32 [ %7, %.lr.ph ], [ 0, %3 ]
  %6 = tail call i32 @avio_rb16(ptr noundef %1) #12
  %7 = add nuw nsw i32 %.0404, 1
  %exitcond.not = icmp eq i32 %7, %4
  br i1 %exitcond.not, label %._crit_edge, label %.lr.ph, !llvm.loop !121

._crit_edge:                                      ; preds = %.lr.ph, %3
  %8 = tail call i32 @avio_rb16(ptr noundef %1) #12
  %.not = icmp eq i32 %8, 1
  br i1 %.not, label %.lr.ph8, label %9

9:                                                ; preds = %._crit_edge
  tail call void (ptr, ptr, ...) @avpriv_request_sample(ptr noundef %0, ptr noundef nonnull @.str.31, i32 noundef %8) #12
  %10 = icmp sgt i32 %8, 0
  br i1 %10, label %.lr.ph8, label %.thread

.lr.ph8:                                          ; preds = %._crit_edge, %9
  %11 = getelementptr inbounds nuw i8, ptr %2, i64 12
  %12 = getelementptr inbounds nuw i8, ptr %2, i64 16
  %13 = getelementptr inbounds nuw i8, ptr %2, i64 40
  %14 = getelementptr inbounds nuw i8, ptr %2, i64 48
  %15 = getelementptr inbounds nuw i8, ptr %0, i64 32
  br label %18

16:                                               ; preds = %40
  %17 = add nuw nsw i32 %.1415, 1
  %exitcond14.not = icmp eq i32 %17, %8
  br i1 %exitcond14.not, label %.thread, label %18, !llvm.loop !122

18:                                               ; preds = %.lr.ph8, %16
  %.1415 = phi i32 [ 0, %.lr.ph8 ], [ %17, %16 ]
  %.not45 = icmp eq i32 %.1415, 0
  br i1 %.not45, label %40, label %19

19:                                               ; preds = %18
  %20 = tail call ptr @avformat_new_stream(ptr noundef %0, ptr noundef null) #12
  %.not46 = icmp eq ptr %20, null
  br i1 %.not46, label %.thread, label %21

21:                                               ; preds = %19
  %22 = load i32, ptr %11, align 4, !tbaa !72
  %23 = shl i32 %.1415, 16
  %24 = add nsw i32 %22, %23
  %25 = getelementptr inbounds nuw i8, ptr %20, i64 12
  store i32 %24, ptr %25, align 4, !tbaa !72
  %26 = load ptr, ptr %12, align 8, !tbaa !16
  %27 = getelementptr inbounds nuw i8, ptr %26, i64 48
  %28 = load i64, ptr %27, align 8, !tbaa !59
  %29 = getelementptr inbounds nuw i8, ptr %20, i64 16
  %30 = load ptr, ptr %29, align 8, !tbaa !16
  %31 = getelementptr inbounds nuw i8, ptr %30, i64 48
  store i64 %28, ptr %31, align 8, !tbaa !59
  %32 = load i64, ptr %13, align 8, !tbaa !102
  %33 = getelementptr inbounds nuw i8, ptr %20, i64 40
  store i64 %32, ptr %33, align 8, !tbaa !102
  %34 = load i64, ptr %14, align 8, !tbaa !103
  %35 = getelementptr inbounds nuw i8, ptr %20, i64 48
  store i64 %34, ptr %35, align 8, !tbaa !103
  store i32 2, ptr %30, align 8, !tbaa !21
  %36 = tail call noalias ptr @av_mallocz(i64 noundef 232) #12
  %.not.i = icmp eq ptr %36, null
  br i1 %.not.i, label %ff_rm_alloc_rmstream.exit.thread, label %ff_rm_alloc_rmstream.exit

ff_rm_alloc_rmstream.exit.thread:                 ; preds = %21
  %37 = getelementptr inbounds nuw i8, ptr %20, i64 24
  store ptr null, ptr %37, align 8, !tbaa !100
  br label %.thread

ff_rm_alloc_rmstream.exit:                        ; preds = %21
  %38 = getelementptr inbounds nuw i8, ptr %36, i64 112
  store i32 -1, ptr %38, align 8, !tbaa !4
  %39 = getelementptr inbounds nuw i8, ptr %20, i64 24
  store ptr %36, ptr %39, align 8, !tbaa !100
  br label %40

40:                                               ; preds = %18, %ff_rm_alloc_rmstream.exit
  %.038 = phi ptr [ %20, %ff_rm_alloc_rmstream.exit ], [ %2, %18 ]
  %41 = tail call i32 @avio_rb32(ptr noundef %1) #12
  %42 = load ptr, ptr %15, align 8, !tbaa !98
  %43 = getelementptr inbounds nuw i8, ptr %.038, i64 24
  %44 = load ptr, ptr %43, align 8, !tbaa !100
  %45 = tail call i32 @ff_rm_read_mdpr_codecdata(ptr noundef %0, ptr noundef %42, ptr noundef nonnull %.038, ptr noundef %44, i32 noundef %41, ptr noundef null)
  %46 = icmp sgt i32 %45, -1
  br i1 %46, label %16, label %.thread

.thread:                                          ; preds = %40, %16, %19, %9, %ff_rm_alloc_rmstream.exit.thread
  %.2 = phi i32 [ -12, %ff_rm_alloc_rmstream.exit.thread ], [ 0, %9 ], [ %45, %40 ], [ 0, %16 ], [ -12, %19 ]
  ret i32 %.2
}